target datalayout = "e-m:e-p270:32:32-p271:32:32-p272:64:64-i64:64-i128:128-f80:128-n8:16:32:64-S128"
target triple = "x86_64-pc-linux-gnu"

%struct.H5HL_t = type { i64, i64, i64, i64, i8, ptr, ptr, i64, i64, i64, ptr, i64, i64, ptr }
%struct.H5HL_free_t = type { i64, i64, ptr, ptr }

@H5HL_init_g = global i8 0, align 1
@H5_H5HL_free_t_reg_free_list = global { i8, [3 x i8], i32, i32, [4 x i8], ptr, i64, ptr } { i8 0, [3 x i8] zeroinitializer, i32 0, i32 0, [4 x i8] zeroinitializer, ptr @.str, i64 32, ptr null }, align 8
@H5_libterm_g = external global i8, align 1

; Function Attrs: nounwind uwtable
define internal ptr @H5HL__remove_free(ptr noundef %0, ptr noundef %1) #0 {
  %3 = alloca ptr, align 8
  %4 = alloca ptr, align 8
  %5 = alloca ptr, align 8
  store ptr %0, ptr %3, align 8, !tbaa !12
  store ptr %1, ptr %4, align 8, !tbaa !57
  call void @llvm.lifetime.start.p0(i64 8, ptr %5) #6
  store ptr null, ptr %5, align 8, !tbaa !57
  %6 = load i8, ptr @H5HL_init_g, align 1, !tbaa !18, !range !20, !noundef !21
  %7 = trunc i8 %6 to i1
  br i1 %7, label %12, label %8

8:                                                ; preds = %2
  %9 = load i8, ptr @H5_libterm_g, align 1, !tbaa !18, !range !20, !noundef !21
  %10 = trunc i8 %9 to i1
  %11 = xor i1 %10, true
  br label %12

12:                                               ; preds = %8, %2
  %13 = phi i1 [ true, %2 ], [ %11, %8 ]
  %14 = xor i1 %13, true
  %15 = xor i1 %14, true
  %16 = zext i1 %15 to i32
  %17 = sext i32 %16 to i64
  %18 = call i64 @llvm.expect.i64(i64 %17, i64 1)
  %19 = icmp ne i64 %18, 0
  br i1 %19, label %20, label %60

20:                                               ; preds = %12
  %21 = load ptr, ptr %4, align 8, !tbaa !57
  %22 = getelementptr inbounds nuw %struct.H5HL_free_t, ptr %21, i32 0, i32 2
  %23 = load ptr, ptr %22, align 8, !tbaa !37
  %24 = icmp ne ptr %23, null
  br i1 %24, label %25, label %33

25:                                               ; preds = %20
  %26 = load ptr, ptr %4, align 8, !tbaa !57
  %27 = getelementptr inbounds nuw %struct.H5HL_free_t, ptr %26, i32 0, i32 3
  %28 = load ptr, ptr %27, align 8, !tbaa !36
  %29 = load ptr, ptr %4, align 8, !tbaa !57
  %30 = getelementptr inbounds nuw %struct.H5HL_free_t, ptr %29, i32 0, i32 2
  %31 = load ptr, ptr %30, align 8, !tbaa !37
  %32 = getelementptr inbounds nuw %struct.H5HL_free_t, ptr %31, i32 0, i32 3
  store ptr %28, ptr %32, align 8, !tbaa !36
  br label %33

33:                                               ; preds = %25, %20
  %34 = load ptr, ptr %4, align 8, !tbaa !57
  %35 = getelementptr inbounds nuw %struct.H5HL_free_t, ptr %34, i32 0, i32 3
  %36 = load ptr, ptr %35, align 8, !tbaa !36
  %37 = icmp ne ptr %36, null
  br i1 %37, label %38, label %46

38:                                               ; preds = %33
  %39 = load ptr, ptr %4, align 8, !tbaa !57
  %40 = getelementptr inbounds nuw %struct.H5HL_free_t, ptr %39, i32 0, i32 2
  %41 = load ptr, ptr %40, align 8, !tbaa !37
  %42 = load ptr, ptr %4, align 8, !tbaa !57
  %43 = getelementptr inbounds nuw %struct.H5HL_free_t, ptr %42, i32 0, i32 3
  %44 = load ptr, ptr %43, align 8, !tbaa !36
  %45 = getelementptr inbounds nuw %struct.H5HL_free_t, ptr %44, i32 0, i32 2
  store ptr %41, ptr %45, align 8, !tbaa !37
  br label %46

46:                                               ; preds = %38, %33
  %47 = load ptr, ptr %4, align 8, !tbaa !57
  %48 = getelementptr inbounds nuw %struct.H5HL_free_t, ptr %47, i32 0, i32 2
  %49 = load ptr, ptr %48, align 8, !tbaa !37
  %50 = icmp ne ptr %49, null
  br i1 %50, label %57, label %51

51:                                               ; preds = %46
  %52 = load ptr, ptr %4, align 8, !tbaa !57
  %53 = getelementptr inbounds nuw %struct.H5HL_free_t, ptr %52, i32 0, i32 3
  %54 = load ptr, ptr %53, align 8, !tbaa !36
  %55 = load ptr, ptr %3, align 8, !tbaa !12
  %56 = getelementptr inbounds nuw %struct.H5HL_t, ptr %55, i32 0, i32 5
  store ptr %54, ptr %56, align 8, !tbaa !32
  br label %57

57:                                               ; preds = %51, %46
  %58 = load ptr, ptr %4, align 8, !tbaa !57
  %59 = call ptr @H5FL_reg_free(ptr noundef @H5_H5HL_free_t_reg_free_list, ptr noundef %58)
  store ptr %59, ptr %5, align 8, !tbaa !57
  br label %60

60:                                               ; preds = %57, %12
  %61 = load ptr, ptr %5, align 8, !tbaa !57
  call void @llvm.lifetime.end.p0(i64 8, ptr %5) #6
  ret ptr %61
}