; Function Attrs: nounwind uwtable
define internal fastcc void @H5HL__remove_free(ptr noundef writeonly captures(none) %0, ptr noundef nonnull %1) unnamed_addr #0 {
  %3 = load i8, ptr @H5HL_init_g, align 1, !tbaa !3, !range !7, !noundef !8
  %4 = trunc nuw i8 %3 to i1
  %5 = load i8, ptr @H5_libterm_g, align 1, !range !7
  %6 = trunc nuw i8 %5 to i1
  %7 = xor i1 %6, true
  %8 = select i1 %4, i1 true, i1 %7
  br i1 %8, label %9, label %22, !prof !9

9:                                                ; preds = %2
  %10 = getelementptr inbounds nuw i8, ptr %1, i64 16
  %11 = load ptr, ptr %10, align 8, !tbaa !51
  %.not = icmp eq ptr %11, null
  %.phi.trans.insert = getelementptr inbounds nuw i8, ptr %1, i64 24
  %.pre = load ptr, ptr %.phi.trans.insert, align 8, !tbaa !52
  br i1 %.not, label %._crit_edge, label %12

12:                                               ; preds = %9
  %13 = getelementptr inbounds nuw i8, ptr %11, i64 24
  store ptr %.pre, ptr %13, align 8, !tbaa !52
  br label %._crit_edge

._crit_edge:                                      ; preds = %9, %12
  %.not13 = icmp eq ptr %.pre, null
  br i1 %.not13, label %16, label %14

14:                                               ; preds = %._crit_edge
  %15 = getelementptr inbounds nuw i8, ptr %.pre, i64 16
  store ptr %11, ptr %15, align 8, !tbaa !51
  %.pre15 = load ptr, ptr %10, align 8, !tbaa !51
  br label %16

16:                                               ; preds = %14, %._crit_edge
  %17 = phi ptr [ %.pre15, %14 ], [ %11, %._crit_edge ]
  %.not14 = icmp eq ptr %17, null
  br i1 %.not14, label %18, label %20

18:                                               ; preds = %16
  %19 = getelementptr inbounds nuw i8, ptr %0, i64 40
  store ptr %.pre, ptr %19, align 8, !tbaa !25
  br label %20

20:                                               ; preds = %18, %16
  %21 = tail call ptr @H5FL_reg_free(ptr noundef nonnull @H5_H5HL_free_t_reg_free_list, ptr noundef nonnull %1) #7
  br label %22

22:                                               ; preds = %20, %2
  ret void
}